; Function Attrs: nounwind uwtable
define noundef ptr @glfwCreateCursor(ptr noundef %0, i32 noundef %1, i32 noundef %2) local_unnamed_addr #0 {
  %4 = load i32, ptr @_glfw, align 8, !tbaa !170
  %.not = icmp eq i32 %4, 0
  br i1 %.not, label %5, label %6

5:                                                ; preds = %3
  tail call void (i32, ptr, ...) @_glfwInputError(i32 noundef 65537, ptr noundef null) #12
  br label %glfwDestroyCursor.exit

6:                                                ; preds = %3
  %7 = load i32, ptr %0, align 8, !tbaa !181
  %8 = icmp slt i32 %7, 1
  br i1 %8, label %13, label %9

9:                                                ; preds = %6
  %10 = getelementptr inbounds nuw i8, ptr %0, i64 4
  %11 = load i32, ptr %10, align 4, !tbaa !183
  %12 = icmp slt i32 %11, 1
  br i1 %12, label %13, label %14

13:                                               ; preds = %9, %6
  tail call void (i32, ptr, ...) @_glfwInputError(i32 noundef 65540, ptr noundef nonnull @.str.401) #12
  br label %glfwDestroyCursor.exit

14:                                               ; preds = %9
  %15 = tail call ptr @_glfw_calloc(i64 noundef 1, i64 noundef 64) #12
  %16 = load ptr, ptr getelementptr inbounds nuw (i8, ptr @_glfw, i64 1904), align 8, !tbaa !184
  store ptr %16, ptr %15, align 8, !tbaa !185
  store ptr %15, ptr getelementptr inbounds nuw (i8, ptr @_glfw, i64 1904), align 8, !tbaa !184
  %17 = load ptr, ptr getelementptr inbounds nuw (i8, ptr @_glfw, i64 104), align 8, !tbaa !190
  %18 = tail call i32 %17(ptr noundef nonnull %15, ptr noundef nonnull %0, i32 noundef %1, i32 noundef %2) #12
  %.not10 = icmp eq i32 %18, 0
  br i1 %.not10, label %19, label %glfwDestroyCursor.exit

19:                                               ; preds = %14
  %20 = load i32, ptr @_glfw, align 8, !tbaa !170
  %.not.i = icmp eq i32 %20, 0
  br i1 %.not.i, label %21, label %.preheader.i

21:                                               ; preds = %19
  tail call void (i32, ptr, ...) @_glfwInputError(i32 noundef 65537, ptr noundef null) #12
  br label %glfwDestroyCursor.exit

.preheader.i:                                     ; preds = %19
  %.01419.i = load ptr, ptr getelementptr inbounds nuw (i8, ptr @_glfw, i64 1912), align 8, !tbaa !191
  %.not1720.i = icmp eq ptr %.01419.i, null
  br i1 %.not1720.i, label %._crit_edge.i, label %.lr.ph.i

.lr.ph.i:                                         ; preds = %.preheader.i, %glfwSetCursor.exit.i
  %.01421.i = phi ptr [ %.014.i, %glfwSetCursor.exit.i ], [ %.01419.i, %.preheader.i ]
  %22 = getelementptr inbounds nuw i8, ptr %.01421.i, i64 88
  %23 = load ptr, ptr %22, align 8, !tbaa !192
  %24 = icmp eq ptr %23, %15
  br i1 %24, label %25, label %glfwSetCursor.exit.i

25:                                               ; preds = %.lr.ph.i
  %26 = load i32, ptr @_glfw, align 8, !tbaa !170
  %.not.i.i = icmp eq i32 %26, 0
  br i1 %.not.i.i, label %27, label %28

27:                                               ; preds = %25
  tail call void (i32, ptr, ...) @_glfwInputError(i32 noundef 65537, ptr noundef null) #12
  br label %glfwSetCursor.exit.i

28:                                               ; preds = %25
  store ptr null, ptr %22, align 8, !tbaa !192
  %29 = load ptr, ptr getelementptr inbounds nuw (i8, ptr @_glfw, i64 128), align 8, !tbaa !193
  tail call void %29(ptr noundef nonnull %.01421.i, ptr noundef null) #12
  br label %glfwSetCursor.exit.i

glfwSetCursor.exit.i:                             ; preds = %28, %27, %.lr.ph.i
  %.014.i = load ptr, ptr %.01421.i, align 8, !tbaa !191
  %.not17.i = icmp eq ptr %.014.i, null
  br i1 %.not17.i, label %._crit_edge.i, label %.lr.ph.i

._crit_edge.i:                                    ; preds = %glfwSetCursor.exit.i, %.preheader.i
  %30 = load ptr, ptr getelementptr inbounds nuw (i8, ptr @_glfw, i64 120), align 8, !tbaa !194
  tail call void %30(ptr noundef nonnull %15) #12
  br label %31

31:                                               ; preds = %31, %._crit_edge.i
  %.0.i = phi ptr [ getelementptr inbounds nuw (i8, ptr @_glfw, i64 1904), %._crit_edge.i ], [ %32, %31 ]
  %32 = load ptr, ptr %.0.i, align 8, !tbaa !195
  %.not18.i = icmp eq ptr %32, %15
  br i1 %.not18.i, label %33, label %31

33:                                               ; preds = %31
  %34 = load ptr, ptr %15, align 8, !tbaa !185
  store ptr %34, ptr %.0.i, align 8, !tbaa !195
  tail call void @_glfw_free(ptr noundef nonnull %15) #12
  br label %glfwDestroyCursor.exit

glfwDestroyCursor.exit:                           ; preds = %33, %21, %14, %13, %5
  %.0 = phi ptr [ null, %13 ], [ null, %5 ], [ %15, %14 ], [ null, %21 ], [ null, %33 ]
  ret ptr %.0
}